target datalayout = "e-m:e-p270:32:32-p271:32:32-p272:64:64-i64:64-i128:128-f80:128-n8:16:32:64-S128"
target triple = "x86_64-pc-linux-gnu"

%struct.OGLContext = type { ptr, i32, i32, float, i32, i32, i8, i8, i8, i8, i32, i8, ptr, i32, i32, i8 }
%struct._OGLSDOps = type { %struct._SurfaceDataOps, ptr, ptr, i32, i32, i8, i8, i32, i32, i32, i32, i32, i32, i32, i32, i32, i32, i32 }
%struct._SurfaceDataOps = type { ptr, ptr, ptr, ptr, ptr, ptr, ptr }

@j2d_glActiveTextureARB = external global ptr, align 8
@linearGradPrograms = internal global [32 x i32] zeroinitializer, align 16
@j2d_glGetUniformLocationARB = external global ptr, align 8
@.str = private unnamed_addr constant [7 x i8] c"params\00", align 1
@j2d_glUniform3fARB = external global ptr, align 8
@.str.1 = private unnamed_addr constant [5 x i8] c"yoff\00", align 1
@j2d_glUniform1fARB = external global ptr, align 8
@.str.5 = private unnamed_addr constant [40 x i8] c"uniform vec3 params;uniform float yoff;\00", align 1
@.str.6 = private unnamed_addr constant [95 x i8] c"vec3 fragCoord = vec3(gl_FragCoord.x, yoff-gl_FragCoord.y, 1.0);dist = dot(params, fragCoord);\00", align 1

; Function Attrs: nounwind uwtable
define internal i32 @OGLPaints_CreateLinearGradProgram(i32 noundef %0) #0 {
  %2 = alloca i32, align 4
  %3 = alloca ptr, align 8
  %4 = alloca ptr, align 8
  store i32 %0, ptr %2, align 4
  store ptr @.str.5, ptr %3, align 8
  store ptr @.str.6, ptr %4, align 8
  %5 = load i32, ptr %2, align 4
  %6 = load ptr, ptr %3, align 8
  %7 = load ptr, ptr %4, align 8
  %8 = call i32 @OGLPaints_CreateMultiGradProgram(i32 noundef %5, ptr noundef %6, ptr noundef %7)
  ret i32 %8
}

; Function Attrs: nounwind uwtable
define hidden void @OGLPaints_SetLinearGradientPaint(ptr noundef %0, ptr noundef %1, i8 noundef zeroext %2, i8 noundef zeroext %3, i32 noundef %4, i32 noundef %5, float noundef %6, float noundef %7, float noundef %8, ptr noundef %9, ptr noundef %10) #0 {
  %12 = alloca ptr, align 8
  %13 = alloca ptr, align 8
  %14 = alloca i8, align 1
  %15 = alloca i8, align 1
  %16 = alloca i32, align 4
  %17 = alloca i32, align 4
  %18 = alloca float, align 4
  %19 = alloca float, align 4
  %20 = alloca float, align 4
  %21 = alloca ptr, align 8
  %22 = alloca ptr, align 8
  %23 = alloca i32, align 4
  %24 = alloca i32, align 4
  %25 = alloca i8, align 1
  %26 = alloca i32, align 4
  store ptr %0, ptr %12, align 8
  store ptr %1, ptr %13, align 8
  store i8 %2, ptr %14, align 1
  store i8 %3, ptr %15, align 1
  store i32 %4, ptr %16, align 4
  store i32 %5, ptr %17, align 4
  store float %6, ptr %18, align 4
  store float %7, ptr %19, align 4
  store float %8, ptr %20, align 4
  store ptr %9, ptr %21, align 8
  store ptr %10, ptr %22, align 8
  %27 = load i32, ptr %17, align 4
  %28 = icmp sgt i32 %27, 4
  %29 = zext i1 %28 to i32
  %30 = trunc i32 %29 to i8
  store i8 %30, ptr %25, align 1
  store i32 0, ptr %26, align 4
  %31 = load ptr, ptr %12, align 8
  %32 = icmp eq ptr %31, null
  br i1 %32, label %33, label %34

33:                                               ; preds = %11
  br label %133

34:                                               ; preds = %11
  br label %35

35:                                               ; preds = %34
  br label %36

36:                                               ; preds = %35
  br label %37

37:                                               ; preds = %36
  %38 = load ptr, ptr %13, align 8
  %39 = icmp eq ptr %38, null
  br i1 %39, label %40, label %41

40:                                               ; preds = %37
  br label %133

41:                                               ; preds = %37
  br label %42

42:                                               ; preds = %41
  br label %43

43:                                               ; preds = %42
  br label %44

44:                                               ; preds = %43
  %45 = load ptr, ptr %12, align 8
  call void @OGLPaints_ResetPaint(ptr noundef %45)
  br label %46

46:                                               ; preds = %44
  %47 = load i32, ptr %16, align 4
  %48 = and i32 %47, 3
  %49 = load i32, ptr %26, align 4
  %50 = or i32 %49, %48
  store i32 %50, ptr %26, align 4
  %51 = load i8, ptr %25, align 1
  %52 = icmp ne i8 %51, 0
  br i1 %52, label %53, label %56

53:                                               ; preds = %46
  %54 = load i32, ptr %26, align 4
  %55 = or i32 %54, 4
  store i32 %55, ptr %26, align 4
  br label %56

56:                                               ; preds = %53, %46
  %57 = load i8, ptr %14, align 1
  %58 = icmp ne i8 %57, 0
  br i1 %58, label %59, label %62

59:                                               ; preds = %56
  %60 = load i32, ptr %26, align 4
  %61 = or i32 %60, 8
  store i32 %61, ptr %26, align 4
  br label %62

62:                                               ; preds = %59, %56
  %63 = load i8, ptr %15, align 1
  %64 = icmp ne i8 %63, 0
  br i1 %64, label %65, label %68

65:                                               ; preds = %62
  %66 = load i32, ptr %26, align 4
  %67 = or i32 %66, 16
  store i32 %67, ptr %26, align 4
  br label %68

68:                                               ; preds = %65, %62
  br label %69

69:                                               ; preds = %68
  %70 = load i8, ptr %14, align 1
  %71 = icmp ne i8 %70, 0
  br i1 %71, label %72, label %74

72:                                               ; preds = %69
  %73 = load ptr, ptr @j2d_glActiveTextureARB, align 8
  call void %73(i32 noundef 33985)
  br label %74

74:                                               ; preds = %72, %69
  %75 = load i32, ptr %26, align 4
  %76 = sext i32 %75 to i64
  %77 = getelementptr inbounds [32 x i32], ptr @linearGradPrograms, i64 0, i64 %76
  %78 = load i32, ptr %77, align 4
  %79 = icmp eq i32 %78, 0
  br i1 %79, label %80, label %93

80:                                               ; preds = %74
  %81 = load i32, ptr %26, align 4
  %82 = call i32 @OGLPaints_CreateLinearGradProgram(i32 noundef %81)
  %83 = load i32, ptr %26, align 4
  %84 = sext i32 %83 to i64
  %85 = getelementptr inbounds [32 x i32], ptr @linearGradPrograms, i64 0, i64 %84
  store i32 %82, ptr %85, align 4
  %86 = load i32, ptr %26, align 4
  %87 = sext i32 %86 to i64
  %88 = getelementptr inbounds [32 x i32], ptr @linearGradPrograms, i64 0, i64 %87
  %89 = load i32, ptr %88, align 4
  %90 = icmp eq i32 %89, 0
  br i1 %90, label %91, label %92

91:                                               ; preds = %80
  br label %133

92:                                               ; preds = %80
  br label %93

93:                                               ; preds = %92, %74
  %94 = load i32, ptr %26, align 4
  %95 = sext i32 %94 to i64
  %96 = getelementptr inbounds [32 x i32], ptr @linearGradPrograms, i64 0, i64 %95
  %97 = load i32, ptr %96, align 4
  store i32 %97, ptr %23, align 4
  %98 = load i32, ptr %23, align 4
  %99 = load i32, ptr %17, align 4
  %100 = load ptr, ptr %21, align 8
  %101 = load ptr, ptr %22, align 8
  call void @OGLPaints_SetMultiGradientPaint(i32 noundef %98, i32 noundef %99, ptr noundef %100, ptr noundef %101)
  %102 = load ptr, ptr @j2d_glGetUniformLocationARB, align 8
  %103 = load i32, ptr %23, align 4
  %104 = call i32 %102(i32 noundef %103, ptr noundef @.str)
  store i32 %104, ptr %24, align 4
  %105 = load ptr, ptr @j2d_glUniform3fARB, align 8
  %106 = load i32, ptr %24, align 4
  %107 = load float, ptr %18, align 4
  %108 = load float, ptr %19, align 4
  %109 = load float, ptr %20, align 4
  call void %105(i32 noundef %106, float noundef %107, float noundef %108, float noundef %109)
  %110 = load ptr, ptr @j2d_glGetUniformLocationARB, align 8
  %111 = load i32, ptr %23, align 4
  %112 = call i32 %110(i32 noundef %111, ptr noundef @.str.1)
  store i32 %112, ptr %24, align 4
  %113 = load ptr, ptr @j2d_glUniform1fARB, align 8
  %114 = load i32, ptr %24, align 4
  %115 = load ptr, ptr %13, align 8
  %116 = getelementptr inbounds %struct._OGLSDOps, ptr %115, i32 0, i32 8
  %117 = load i32, ptr %116, align 8
  %118 = load ptr, ptr %13, align 8
  %119 = getelementptr inbounds %struct._OGLSDOps, ptr %118, i32 0, i32 10
  %120 = load i32, ptr %119, align 8
  %121 = add nsw i32 %117, %120
  %122 = sitofp i32 %121 to float
  call void %113(i32 noundef %114, float noundef %122)
  %123 = load i8, ptr %14, align 1
  %124 = icmp ne i8 %123, 0
  br i1 %124, label %125, label %127

125:                                              ; preds = %93
  %126 = load ptr, ptr @j2d_glActiveTextureARB, align 8
  call void %126(i32 noundef 33984)
  br label %127

127:                                              ; preds = %125, %93
  %128 = load i8, ptr %14, align 1
  %129 = load ptr, ptr %12, align 8
  %130 = getelementptr inbounds %struct.OGLContext, ptr %129, i32 0, i32 11
  store i8 %128, ptr %130, align 4
  %131 = load ptr, ptr %12, align 8
  %132 = getelementptr inbounds %struct.OGLContext, ptr %131, i32 0, i32 10
  store i32 3, ptr %132, align 8
  br label %133

133:                                              ; preds = %127, %91, %40, %33
  ret void
}