; Function Attrs: nounwind uwtable
define hidden void @OGLPaints_SetLinearGradientPaint(ptr noundef %0, ptr noundef readonly %1, i8 noundef zeroext %2, i8 noundef zeroext %3, i32 noundef %4, i32 noundef %5, float noundef %6, float noundef %7, float noundef %8, ptr noundef %9, ptr noundef %10) local_unnamed_addr #0 {
  %12 = icmp eq ptr %0, null
  %13 = icmp eq ptr %1, null
  %or.cond = or i1 %12, %13
  br i1 %or.cond, label %49, label %14

14:                                               ; preds = %11
  %15 = icmp sgt i32 %5, 4
  tail call void @OGLPaints_ResetPaint(ptr noundef nonnull %0)
  %16 = and i32 %4, 3
  %17 = or disjoint i32 %16, 4
  %spec.select = select i1 %15, i32 %17, i32 %16
  %.not = icmp eq i8 %2, 0
  %18 = or disjoint i32 %spec.select, 8
  %.1 = select i1 %.not, i32 %spec.select, i32 %18
  %.not37 = icmp eq i8 %3, 0
  %19 = or disjoint i32 %.1, 16
  %.2 = select i1 %.not37, i32 %.1, i32 %19
  br i1 %.not, label %22, label %20

20:                                               ; preds = %14
  %21 = load ptr, ptr @j2d_glActiveTextureARB, align 8
  tail call void %21(i32 noundef 33985) #6
  br label %22

22:                                               ; preds = %20, %14
  %23 = zext nneg i32 %.2 to i64
  %24 = getelementptr inbounds [32 x i32], ptr @linearGradPrograms, i64 0, i64 %23
  %25 = load i32, ptr %24, align 4
  %26 = icmp eq i32 %25, 0
  br i1 %26, label %27, label %30

27:                                               ; preds = %22
  %28 = tail call fastcc i32 @OGLPaints_CreateMultiGradProgram(i32 noundef %.2, ptr noundef nonnull @.str.5, ptr noundef nonnull @.str.6)
  store i32 %28, ptr %24, align 4
  %29 = icmp eq i32 %28, 0
  br i1 %29, label %49, label %30

30:                                               ; preds = %27, %22
  %31 = phi i32 [ %28, %27 ], [ %25, %22 ]
  tail call fastcc void @OGLPaints_SetMultiGradientPaint(i32 noundef %31, i32 noundef %5, ptr noundef %9, ptr noundef %10)
  %32 = load ptr, ptr @j2d_glGetUniformLocationARB, align 8
  %33 = tail call i32 %32(i32 noundef %31, ptr noundef nonnull @.str) #6
  %34 = load ptr, ptr @j2d_glUniform3fARB, align 8
  tail call void %34(i32 noundef %33, float noundef %6, float noundef %7, float noundef %8) #6
  %35 = load ptr, ptr @j2d_glGetUniformLocationARB, align 8
  %36 = tail call i32 %35(i32 noundef %31, ptr noundef nonnull @.str.1) #6
  %37 = load ptr, ptr @j2d_glUniform1fARB, align 8
  %38 = getelementptr inbounds i8, ptr %1, i64 88
  %39 = load i32, ptr %38, align 8
  %40 = getelementptr inbounds i8, ptr %1, i64 96
  %41 = load i32, ptr %40, align 8
  %42 = add nsw i32 %41, %39
  %43 = sitofp i32 %42 to float
  tail call void %37(i32 noundef %36, float noundef %43) #6
  br i1 %.not, label %46, label %44

44:                                               ; preds = %30
  %45 = load ptr, ptr @j2d_glActiveTextureARB, align 8
  tail call void %45(i32 noundef 33984) #6
  br label %46

46:                                               ; preds = %44, %30
  %47 = getelementptr inbounds i8, ptr %0, i64 36
  store i8 %2, ptr %47, align 4
  %48 = getelementptr inbounds i8, ptr %0, i64 32
  store i32 3, ptr %48, align 8
  br label %49

49:                                               ; preds = %27, %11, %46
  ret void
}